; ModuleID = '24/2575.c'
source_filename = "24/2575.c"
target datalayout = "e-m:e-p270:32:32-p271:32:32-p272:64:64-i64:64-f80:128-n8:16:32:64-S128"
target triple = "x86_64-pc-linux-gnu"

@.str = private unnamed_addr constant [3 x i8] c"%d\00", align 1
@.str.1 = private unnamed_addr constant [3 x i8] c"%s\00", align 1
@.str.2 = private unnamed_addr constant [4 x i8] c"%s\0A\00", align 1

; Function Attrs: noinline nounwind uwtable
define dso_local i32 @main() #0 {
  %1 = alloca i32, align 4
  %2 = alloca i32, align 4
  %3 = alloca i32, align 4
  %4 = alloca i32, align 4
  %5 = alloca i32, align 4
  %6 = alloca i32, align 4
  %7 = alloca [250 x [250 x i8]], align 16
  store i32 0, i32* %1, align 4
  store i32 0, i32* %5, align 4
  store i32 100, i32* %6, align 4
  %8 = call i32 (i8*, ...) @__isoc99_scanf(i8* getelementptr inbounds ([3 x i8], [3 x i8]* @.str, i64 0, i64 0), i32* %2)
  store i32 0, i32* %3, align 4
  br label %9

9:                                                ; preds = %19, %0
  %10 = load i32, i32* %3, align 4
  %11 = load i32, i32* %2, align 4
  %12 = icmp slt i32 %10, %11
  br i1 %12, label %13, label %22

13:                                               ; preds = %9
  %14 = load i32, i32* %3, align 4
  %15 = sext i32 %14 to i64
  %16 = getelementptr inbounds [250 x [250 x i8]], [250 x [250 x i8]]* %7, i64 0, i64 %15
  %17 = getelementptr inbounds [250 x i8], [250 x i8]* %16, i64 0, i64 0
  %18 = call i32 (i8*, ...) @__isoc99_scanf(i8* getelementptr inbounds ([3 x i8], [3 x i8]* @.str.1, i64 0, i64 0), i8* %17)
  br label %19

19:                                               ; preds = %13
  %20 = load i32, i32* %3, align 4
  %21 = add nsw i32 %20, 1
  store i32 %21, i32* %3, align 4
  br label %9

22:                                               ; preds = %9
  store i32 0, i32* %3, align 4
  br label %23

23:                                               ; preds = %60, %22
  %24 = load i32, i32* %3, align 4
  %25 = load i32, i32* %2, align 4
  %26 = icmp slt i32 %24, %25
  br i1 %26, label %27, label %63

27:                                               ; preds = %23
  %28 = load i32, i32* %3, align 4
  %29 = sext i32 %28 to i64
  %30 = getelementptr inbounds [250 x [250 x i8]], [250 x [250 x i8]]* %7, i64 0, i64 %29
  %31 = getelementptr inbounds [250 x i8], [250 x i8]* %30, i64 0, i64 0
  %32 = call i64 @strlen(i8* %31) #3
  %33 = load i32, i32* %5, align 4
  %34 = sext i32 %33 to i64
  %35 = icmp ugt i64 %32, %34
  br i1 %35, label %36, label %43

36:                                               ; preds = %27
  %37 = load i32, i32* %3, align 4
  %38 = sext i32 %37 to i64
  %39 = getelementptr inbounds [250 x [250 x i8]], [250 x [250 x i8]]* %7, i64 0, i64 %38
  %40 = getelementptr inbounds [250 x i8], [250 x i8]* %39, i64 0, i64 0
  %41 = call i64 @strlen(i8* %40) #3
  %42 = trunc i64 %41 to i32
  store i32 %42, i32* %5, align 4
  br label %43

43:                                               ; preds = %36, %27
  %44 = load i32, i32* %3, align 4
  %45 = sext i32 %44 to i64
  %46 = getelementptr inbounds [250 x [250 x i8]], [250 x [250 x i8]]* %7, i64 0, i64 %45
  %47 = getelementptr inbounds [250 x i8], [250 x i8]* %46, i64 0, i64 0
  %48 = call i64 @strlen(i8* %47) #3
  %49 = load i32, i32* %6, align 4
  %50 = sext i32 %49 to i64
  %51 = icmp ult i64 %48, %50
  br i1 %51, label %52, label %59

52:                                               ; preds = %43
  %53 = load i32, i32* %3, align 4
  %54 = sext i32 %53 to i64
  %55 = getelementptr inbounds [250 x [250 x i8]], [250 x [250 x i8]]* %7, i64 0, i64 %54
  %56 = getelementptr inbounds [250 x i8], [250 x i8]* %55, i64 0, i64 0
  %57 = call i64 @strlen(i8* %56) #3
  %58 = trunc i64 %57 to i32
  store i32 %58, i32* %6, align 4
  br label %59

59:                                               ; preds = %52, %43
  br label %60

60:                                               ; preds = %59
  %61 = load i32, i32* %3, align 4
  %62 = add nsw i32 %61, 1
  store i32 %62, i32* %3, align 4
  br label %23

63:                                               ; preds = %23
  store i32 0, i32* %4, align 4
  br label %64

64:                                               ; preds = %84, %63
  %65 = load i32, i32* %4, align 4
  %66 = load i32, i32* %2, align 4
  %67 = icmp slt i32 %65, %66
  br i1 %67, label %68, label %87

68:                                               ; preds = %64
  %69 = load i32, i32* %4, align 4
  %70 = sext i32 %69 to i64
  %71 = getelementptr inbounds [250 x [250 x i8]], [250 x [250 x i8]]* %7, i64 0, i64 %70
  %72 = getelementptr inbounds [250 x i8], [250 x i8]* %71, i64 0, i64 0
  %73 = call i64 @strlen(i8* %72) #3
  %74 = load i32, i32* %5, align 4
  %75 = sext i32 %74 to i64
  %76 = icmp eq i64 %73, %75
  br i1 %76, label %77, label %83

77:                                               ; preds = %68
  %78 = load i32, i32* %4, align 4
  %79 = sext i32 %78 to i64
  %80 = getelementptr inbounds [250 x [250 x i8]], [250 x [250 x i8]]* %7, i64 0, i64 %79
  %81 = getelementptr inbounds [250 x i8], [250 x i8]* %80, i64 0, i64 0
  %82 = call i32 (i8*, ...) @printf(i8* getelementptr inbounds ([4 x i8], [4 x i8]* @.str.2, i64 0, i64 0), i8* %81)
  br label %87

83:                                               ; preds = %68
  br label %84

84:                                               ; preds = %83
  %85 = load i32, i32* %4, align 4
  %86 = add nsw i32 %85, 1
  store i32 %86, i32* %4, align 4
  br label %64

87:                                               ; preds = %77, %64
  store i32 0, i32* %4, align 4
  br label %88

88:                                               ; preds = %108, %87
  %89 = load i32, i32* %4, align 4
  %90 = load i32, i32* %2, align 4
  %91 = icmp slt i32 %89, %90
  br i1 %91, label %92, label %111

92:                                               ; preds = %88
  %93 = load i32, i32* %4, align 4
  %94 = sext i32 %93 to i64
  %95 = getelementptr inbounds [250 x [250 x i8]], [250 x [250 x i8]]* %7, i64 0, i64 %94
  %96 = getelementptr inbounds [250 x i8], [250 x i8]* %95, i64 0, i64 0
  %97 = call i64 @strlen(i8* %96) #3
  %98 = load i32, i32* %6, align 4
  %99 = sext i32 %98 to i64
  %100 = icmp eq i64 %97, %99
  br i1 %100, label %101, label %107

101:                                              ; preds = %92
  %102 = load i32, i32* %4, align 4
  %103 = sext i32 %102 to i64
  %104 = getelementptr inbounds [250 x [250 x i8]], [250 x [250 x i8]]* %7, i64 0, i64 %103
  %105 = getelementptr inbounds [250 x i8], [250 x i8]* %104, i64 0, i64 0
  %106 = call i32 (i8*, ...) @printf(i8* getelementptr inbounds ([4 x i8], [4 x i8]* @.str.2, i64 0, i64 0), i8* %105)
  br label %111

107:                                              ; preds = %92
  br label %108

108:                                              ; preds = %107
  %109 = load i32, i32* %4, align 4
  %110 = add nsw i32 %109, 1
  store i32 %110, i32* %4, align 4
  br label %88

111:                                              ; preds = %101, %88
  ret i32 0
}

declare dso_local i32 @__isoc99_scanf(i8*, ...) #1

; Function Attrs: nounwind readonly
declare dso_local i64 @strlen(i8*) #2

declare dso_local i32 @printf(i8*, ...) #1


!llvm.module.flags = !{!0}
!llvm.ident = !{!1}

!0 = !{i32 1, !"wchar_size", i32 4}
!1 = !{!"clang version 10.0.0-4ubuntu1 "}
